target datalayout = "e-m:e-p270:32:32-p271:32:32-p272:64:64-i64:64-i128:128-f80:128-n8:16:32:64-S128"
target triple = "x86_64-pc-linux-gnu"

%"class.std::__cxx11::basic_string" = type { %"struct.std::__cxx11::basic_string<char>::_Alloc_hider", i64, %union.anon }
%"struct.std::__cxx11::basic_string<char>::_Alloc_hider" = type { ptr }
%union.anon = type { i64, [8 x i8] }
%"class.llvm::IntrusiveRefCntPtr" = type { ptr }
%"class.clang::driver::Driver" = type { ptr, %"class.llvm::IntrusiveRefCntPtr", i32, i32, i32, i32, i32, i8, i32, i32, %"class.std::__cxx11::basic_string", %"class.std::__cxx11::basic_string", %"class.std::__cxx11::basic_string", %"struct.clang::driver::ParsedClangName", %"class.std::__cxx11::basic_string", %"class.std::__cxx11::basic_string", %"class.std::__cxx11::basic_string", %"class.llvm::SmallVector.0", %"class.std::__cxx11::basic_string", %"class.std::__cxx11::basic_string", %"class.std::__cxx11::basic_string", %"class.std::__cxx11::basic_string", %"class.std::__cxx11::basic_string", %"class.std::__cxx11::basic_string", %"class.std::__cxx11::basic_string", %"class.std::__cxx11::basic_string", %"class.std::__cxx11::basic_string", %"class.std::__cxx11::basic_string", %"class.std::__cxx11::basic_string", %"class.std::__cxx11::basic_string", i8, i32, i32, %"class.std::__cxx11::basic_string", i8, %"class.llvm::function_ref", %"class.std::__cxx11::basic_string", %"class.std::__cxx11::basic_string", %"class.std::vector", %"class.llvm::BumpPtrAllocatorImpl", %"class.llvm::StringSaver", %"class.std::unique_ptr", %"class.std::unique_ptr", ptr, i8, %"class.llvm::StringMap", %"class.llvm::DenseMap" }
%"struct.clang::driver::ParsedClangName" = type <{ %"class.std::__cxx11::basic_string", %"class.std::__cxx11::basic_string", ptr, i8, [7 x i8] }>
%"class.llvm::SmallVector.0" = type { %"class.llvm::SmallVectorImpl.1", %"struct.llvm::SmallVectorStorage.5" }
%"class.llvm::SmallVectorImpl.1" = type { %"class.llvm::SmallVectorTemplateBase.2" }
%"class.llvm::SmallVectorTemplateBase.2" = type { %"class.llvm::SmallVectorTemplateCommon.3" }
%"class.llvm::SmallVectorTemplateCommon.3" = type { %"class.llvm::SmallVectorBase.4" }
%"class.llvm::SmallVectorBase.4" = type { ptr, i32, i32 }
%"struct.llvm::SmallVectorStorage.5" = type { [128 x i8] }
%"class.llvm::function_ref" = type { ptr, i64 }
%"class.std::vector" = type { %"struct.std::_Vector_base" }
%"struct.std::_Vector_base" = type { %"struct.std::_Vector_base<std::__cxx11::basic_string<char>, std::allocator<std::__cxx11::basic_string<char>>>::_Vector_impl" }
%"struct.std::_Vector_base<std::__cxx11::basic_string<char>, std::allocator<std::__cxx11::basic_string<char>>>::_Vector_impl" = type { %"struct.std::_Vector_base<std::__cxx11::basic_string<char>, std::allocator<std::__cxx11::basic_string<char>>>::_Vector_impl_data" }
%"struct.std::_Vector_base<std::__cxx11::basic_string<char>, std::allocator<std::__cxx11::basic_string<char>>>::_Vector_impl_data" = type { ptr, ptr, ptr }
%"class.llvm::BumpPtrAllocatorImpl" = type { ptr, ptr, %"class.llvm::SmallVector.10", %"class.llvm::SmallVector.15", i64, i64 }
%"class.llvm::SmallVector.10" = type { %"class.llvm::SmallVectorImpl.11", %"struct.llvm::SmallVectorStorage.14" }
%"class.llvm::SmallVectorImpl.11" = type { %"class.llvm::SmallVectorTemplateBase.12" }
%"class.llvm::SmallVectorTemplateBase.12" = type { %"class.llvm::SmallVectorTemplateCommon.13" }
%"class.llvm::SmallVectorTemplateCommon.13" = type { %"class.llvm::SmallVectorBase.4" }
%"struct.llvm::SmallVectorStorage.14" = type { [32 x i8] }
%"class.llvm::SmallVector.15" = type { %"class.llvm::SmallVectorImpl.16" }
%"class.llvm::SmallVectorImpl.16" = type { %"class.llvm::SmallVectorTemplateBase.17" }
%"class.llvm::SmallVectorTemplateBase.17" = type { %"class.llvm::SmallVectorTemplateCommon.18" }
%"class.llvm::SmallVectorTemplateCommon.18" = type { %"class.llvm::SmallVectorBase.4" }
%"class.llvm::StringSaver" = type { ptr }
%"class.std::unique_ptr" = type { %"struct.std::__uniq_ptr_data" }
%"struct.std::__uniq_ptr_data" = type { %"class.std::__uniq_ptr_impl" }
%"class.std::__uniq_ptr_impl" = type { %"class.std::tuple" }
%"class.std::tuple" = type { %"struct.std::_Tuple_impl" }
%"struct.std::_Tuple_impl" = type { %"struct.std::_Head_base.21" }
%"struct.std::_Head_base.21" = type { ptr }
%"class.llvm::StringMap" = type { %"class.llvm::StringMapImpl" }
%"class.llvm::StringMapImpl" = type { ptr, i32, i32, i32, i32 }
%"class.llvm::DenseMap" = type <{ ptr, i32, i32, i32, [4 x i8] }>

; Function Attrs: mustprogress nounwind uwtable
define linkonce_odr hidden noundef zeroext i1 @_ZNK5clang6driver6Driver8CCCIsCPPEv(ptr noundef nonnull align 8 dereferenceable(1192) %0) #0 comdat align 2 {
  %2 = alloca ptr, align 8
  store ptr %0, ptr %2, align 8
  %3 = load ptr, ptr %2, align 8
  %4 = getelementptr inbounds nuw %"class.clang::driver::Driver", ptr %3, i32 0, i32 2
  %5 = load i32, ptr %4, align 8
  %6 = icmp eq i32 %5, 2
  ret i1 %6
}

; Function Attrs: mustprogress nounwind uwtable
define dso_local noundef i32 @_ZNK5clang6driver6Driver13getFinalPhaseERKN4llvm3opt14DerivedArgListEPPNS3_3ArgE(ptr noundef nonnull align 8 dereferenceable(1192) %0, ptr noundef nonnull align 8 dereferenceable(328) %1, ptr noundef %2) #0 align 2 {
  %4 = alloca ptr, align 8
  %5 = alloca ptr, align 8
  %6 = alloca ptr, align 8
  %7 = alloca ptr, align 8
  %8 = alloca i32, align 4
  store ptr %0, ptr %4, align 8
  store ptr %1, ptr %5, align 8
  store ptr %2, ptr %6, align 8
  %9 = load ptr, ptr %4, align 8
  store ptr null, ptr %7, align 8
  %10 = call noundef zeroext i1 @_ZNK5clang6driver6Driver8CCCIsCPPEv(ptr noundef nonnull align 8 dereferenceable(1192) %9)
  br i1 %10, label %34, label %11

11:                                               ; preds = %3
  %12 = load ptr, ptr %5, align 8
  %13 = call noundef ptr @_ZNK4llvm3opt7ArgList10getLastArgIJN5clang6driver7options2IDEEEEPNS0_3ArgEDpT_(ptr noundef nonnull align 8 dereferenceable(176) %12, i32 noundef 390)
  store ptr %13, ptr %7, align 8
  %14 = icmp ne ptr %13, null
  br i1 %14, label %34, label %15

15:                                               ; preds = %11
  %16 = load ptr, ptr %5, align 8
  %17 = call noundef ptr @_ZNK4llvm3opt7ArgList10getLastArgIJN5clang6driver7options2IDEEEEPNS0_3ArgEDpT_(ptr noundef nonnull align 8 dereferenceable(176) %16, i32 noundef 366)
  store ptr %17, ptr %7, align 8
  %18 = icmp ne ptr %17, null
  br i1 %18, label %34, label %19

19:                                               ; preds = %15
  %20 = load ptr, ptr %5, align 8
  %21 = call noundef ptr @_ZNK4llvm3opt7ArgList10getLastArgIJN5clang6driver7options2IDES6_EEEPNS0_3ArgEDpT_(ptr noundef nonnull align 8 dereferenceable(176) %20, i32 noundef 2863, i32 noundef 2399)
  store ptr %21, ptr %7, align 8
  %22 = icmp ne ptr %21, null
  br i1 %22, label %34, label %23

23:                                               ; preds = %19
  %24 = load ptr, ptr %5, align 8
  %25 = call noundef ptr @_ZNK4llvm3opt7ArgList10getLastArgIJN5clang6driver7options2IDEEEEPNS0_3ArgEDpT_(ptr noundef nonnull align 8 dereferenceable(176) %24, i32 noundef 3063)
  store ptr %25, ptr %7, align 8
  %26 = icmp ne ptr %25, null
  br i1 %26, label %34, label %27

27:                                               ; preds = %23
  %28 = getelementptr inbounds nuw %"class.clang::driver::Driver", ptr %9, i32 0, i32 34
  %29 = load i8, ptr %28, align 8
  %30 = lshr i8 %29, 1
  %31 = and i8 %30, 1
  %32 = zext i8 %31 to i32
  %33 = icmp ne i32 %32, 0
  br i1 %33, label %34, label %35

34:                                               ; preds = %27, %23, %19, %15, %11, %3
  store i32 0, ptr %8, align 4
  br label %114

35:                                               ; preds = %27
  %36 = load ptr, ptr %5, align 8
  %37 = call noundef ptr @_ZNK4llvm3opt7ArgList10getLastArgIJN5clang6driver7options2IDEEEEPNS0_3ArgEDpT_(ptr noundef nonnull align 8 dereferenceable(176) %36, i32 noundef 3022)
  store ptr %37, ptr %7, align 8
  %38 = icmp ne ptr %37, null
  br i1 %38, label %47, label %39

39:                                               ; preds = %35
  %40 = load ptr, ptr %5, align 8
  %41 = call noundef ptr @_ZNK4llvm3opt7ArgList10getLastArgIJN5clang6driver7options2IDEEEEPNS0_3ArgEDpT_(ptr noundef nonnull align 8 dereferenceable(176) %40, i32 noundef 388)
  store ptr %41, ptr %7, align 8
  %42 = icmp ne ptr %41, null
  br i1 %42, label %47, label %43

43:                                               ; preds = %39
  %44 = load ptr, ptr %5, align 8
  %45 = call noundef ptr @_ZNK4llvm3opt7ArgList10getLastArgIJN5clang6driver7options2IDES6_EEEPNS0_3ArgEDpT_(ptr noundef nonnull align 8 dereferenceable(176) %44, i32 noundef 919, i32 noundef 918)
  store ptr %45, ptr %7, align 8
  %46 = icmp ne ptr %45, null
  br i1 %46, label %47, label %48

47:                                               ; preds = %43, %39, %35
  store i32 1, ptr %8, align 4
  br label %113

48:                                               ; preds = %43
  %49 = load ptr, ptr %5, align 8
  %50 = call noundef ptr @_ZNK4llvm3opt7ArgList10getLastArgIJN5clang6driver7options2IDEEEEPNS0_3ArgEDpT_(ptr noundef nonnull align 8 dereferenceable(176) %49, i32 noundef 1778)
  store ptr %50, ptr %7, align 8
  %51 = icmp ne ptr %50, null
  br i1 %51, label %92, label %52

52:                                               ; preds = %48
  %53 = load ptr, ptr %5, align 8
  %54 = call noundef ptr @_ZNK4llvm3opt7ArgList10getLastArgIJN5clang6driver7options2IDEEEEPNS0_3ArgEDpT_(ptr noundef nonnull align 8 dereferenceable(176) %53, i32 noundef 3052)
  store ptr %54, ptr %7, align 8
  %55 = icmp ne ptr %54, null
  br i1 %55, label %92, label %56

56:                                               ; preds = %52
  %57 = load ptr, ptr %5, align 8
  %58 = call noundef ptr @_ZNK4llvm3opt7ArgList10getLastArgIJN5clang6driver7options2IDEEEEPNS0_3ArgEDpT_(ptr noundef nonnull align 8 dereferenceable(176) %57, i32 noundef 3032)
  store ptr %58, ptr %7, align 8
  %59 = icmp ne ptr %58, null
  br i1 %59, label %92, label %60

60:                                               ; preds = %56
  %61 = load ptr, ptr %5, align 8
  %62 = call noundef ptr @_ZNK4llvm3opt7ArgList10getLastArgIJN5clang6driver7options2IDEEEEPNS0_3ArgEDpT_(ptr noundef nonnull align 8 dereferenceable(176) %61, i32 noundef 2668)
  store ptr %62, ptr %7, align 8
  %63 = icmp ne ptr %62, null
  br i1 %63, label %92, label %64

64:                                               ; preds = %60
  %65 = load ptr, ptr %5, align 8
  %66 = call noundef ptr @_ZNK4llvm3opt7ArgList10getLastArgIJN5clang6driver7options2IDEEEEPNS0_3ArgEDpT_(ptr noundef nonnull align 8 dereferenceable(176) %65, i32 noundef 3255)
  store ptr %66, ptr %7, align 8
  %67 = icmp ne ptr %66, null
  br i1 %67, label %92, label %68

68:                                               ; preds = %64
  %69 = load ptr, ptr %5, align 8
  %70 = call noundef ptr @_ZNK4llvm3opt7ArgList10getLastArgIJN5clang6driver7options2IDEEEEPNS0_3ArgEDpT_(ptr noundef nonnull align 8 dereferenceable(176) %69, i32 noundef 3103)
  store ptr %70, ptr %7, align 8
  %71 = icmp ne ptr %70, null
  br i1 %71, label %92, label %72

72:                                               ; preds = %68
  %73 = load ptr, ptr %5, align 8
  %74 = call noundef ptr @_ZNK4llvm3opt7ArgList10getLastArgIJN5clang6driver7options2IDEEEEPNS0_3ArgEDpT_(ptr noundef nonnull align 8 dereferenceable(176) %73, i32 noundef 3101)
  store ptr %74, ptr %7, align 8
  %75 = icmp ne ptr %74, null
  br i1 %75, label %92, label %76

76:                                               ; preds = %72
  %77 = load ptr, ptr %5, align 8
  %78 = call noundef ptr @_ZNK4llvm3opt7ArgList10getLastArgIJN5clang6driver7options2IDEEEEPNS0_3ArgEDpT_(ptr noundef nonnull align 8 dereferenceable(176) %77, i32 noundef 2317)
  store ptr %78, ptr %7, align 8
  %79 = icmp ne ptr %78, null
  br i1 %79, label %92, label %80

80:                                               ; preds = %76
  %81 = load ptr, ptr %5, align 8
  %82 = call noundef ptr @_ZNK4llvm3opt7ArgList10getLastArgIJN5clang6driver7options2IDEEEEPNS0_3ArgEDpT_(ptr noundef nonnull align 8 dereferenceable(176) %81, i32 noundef 123)
  store ptr %82, ptr %7, align 8
  %83 = icmp ne ptr %82, null
  br i1 %83, label %92, label %84

84:                                               ; preds = %80
  %85 = load ptr, ptr %5, align 8
  %86 = call noundef ptr @_ZNK4llvm3opt7ArgList10getLastArgIJN5clang6driver7options2IDEEEEPNS0_3ArgEDpT_(ptr noundef nonnull align 8 dereferenceable(176) %85, i32 noundef 335)
  store ptr %86, ptr %7, align 8
  %87 = icmp ne ptr %86, null
  br i1 %87, label %92, label %88

88:                                               ; preds = %84
  %89 = load ptr, ptr %5, align 8
  %90 = call noundef ptr @_ZNK4llvm3opt7ArgList10getLastArgIJN5clang6driver7options2IDEEEEPNS0_3ArgEDpT_(ptr noundef nonnull align 8 dereferenceable(176) %89, i32 noundef 334)
  store ptr %90, ptr %7, align 8
  %91 = icmp ne ptr %90, null
  br i1 %91, label %92, label %93

92:                                               ; preds = %88, %84, %80, %76, %72, %68, %64, %60, %56, %52, %48
  store i32 2, ptr %8, align 4
  br label %112

93:                                               ; preds = %88
  %94 = load ptr, ptr %5, align 8
  %95 = call noundef ptr @_ZNK4llvm3opt7ArgList10getLastArgIJN5clang6driver7options2IDEEEEPNS0_3ArgEDpT_(ptr noundef nonnull align 8 dereferenceable(176) %94, i32 noundef 3195)
  store ptr %95, ptr %7, align 8
  %96 = icmp ne ptr %95, null
  br i1 %96, label %97, label %98

97:                                               ; preds = %93
  store i32 3, ptr %8, align 4
  br label %111

98:                                               ; preds = %93
  %99 = load ptr, ptr %5, align 8
  %100 = call noundef ptr @_ZNK4llvm3opt7ArgList10getLastArgIJN5clang6driver7options2IDEEEEPNS0_3ArgEDpT_(ptr noundef nonnull align 8 dereferenceable(176) %99, i32 noundef 254)
  store ptr %100, ptr %7, align 8
  %101 = icmp ne ptr %100, null
  br i1 %101, label %102, label %103

102:                                              ; preds = %98
  store i32 4, ptr %8, align 4
  br label %110

103:                                              ; preds = %98
  %104 = load ptr, ptr %5, align 8
  %105 = call noundef ptr @_ZNK4llvm3opt7ArgList10getLastArgIJN5clang6driver7options2IDEEEEPNS0_3ArgEDpT_(ptr noundef nonnull align 8 dereferenceable(176) %104, i32 noundef 342)
  store ptr %105, ptr %7, align 8
  %106 = icmp ne ptr %105, null
  br i1 %106, label %107, label %108

107:                                              ; preds = %103
  store i32 6, ptr %8, align 4
  br label %109

108:                                              ; preds = %103
  store i32 5, ptr %8, align 4
  br label %109

109:                                              ; preds = %108, %107
  br label %110

110:                                              ; preds = %109, %102
  br label %111

111:                                              ; preds = %110, %97
  br label %112

112:                                              ; preds = %111, %92
  br label %113

113:                                              ; preds = %112, %47
  br label %114

114:                                              ; preds = %113, %34
  %115 = load ptr, ptr %6, align 8
  %116 = icmp ne ptr %115, null
  br i1 %116, label %117, label %120

117:                                              ; preds = %114
  %118 = load ptr, ptr %7, align 8
  %119 = load ptr, ptr %6, align 8
  store ptr %118, ptr %119, align 8
  br label %120

120:                                              ; preds = %117, %114
  %121 = load i32, ptr %8, align 4
  ret i32 %121
}