; Function Attrs: mustprogress nounwind uwtable
define dso_local noundef range(i32 0, 7) i32 @_ZNK5clang6driver6Driver13getFinalPhaseERKN4llvm3opt14DerivedArgListEPPNS3_3ArgE(ptr nocapture noundef nonnull readonly align 8 dereferenceable(1192) %0, ptr noundef nonnull align 8 dereferenceable(328) %1, ptr noundef writeonly %2) local_unnamed_addr #0 align 2 {
  %4 = getelementptr inbounds nuw i8, ptr %0, i64 16
  %5 = load i32, ptr %4, align 8
  %6 = icmp eq i32 %5, 2
  br i1 %6, label %53, label %7

7:                                                ; preds = %3
  %8 = tail call noundef ptr @_ZNK4llvm3opt7ArgList10getLastArgIJN5clang6driver7options2IDEEEEPNS0_3ArgEDpT_(ptr noundef nonnull align 8 dereferenceable(176) %1, i32 noundef 390)
  %.not = icmp eq ptr %8, null
  br i1 %.not, label %9, label %53

9:                                                ; preds = %7
  %10 = tail call noundef ptr @_ZNK4llvm3opt7ArgList10getLastArgIJN5clang6driver7options2IDEEEEPNS0_3ArgEDpT_(ptr noundef nonnull align 8 dereferenceable(176) %1, i32 noundef 366)
  %.not50 = icmp eq ptr %10, null
  br i1 %.not50, label %11, label %53

11:                                               ; preds = %9
  %12 = tail call noundef ptr @_ZNK4llvm3opt7ArgList10getLastArgIJN5clang6driver7options2IDES6_EEEPNS0_3ArgEDpT_(ptr noundef nonnull align 8 dereferenceable(176) %1, i32 noundef 2863, i32 noundef 2399)
  %.not51 = icmp eq ptr %12, null
  br i1 %.not51, label %13, label %53

13:                                               ; preds = %11
  %14 = tail call noundef ptr @_ZNK4llvm3opt7ArgList10getLastArgIJN5clang6driver7options2IDEEEEPNS0_3ArgEDpT_(ptr noundef nonnull align 8 dereferenceable(176) %1, i32 noundef 3063)
  %.not52 = icmp eq ptr %14, null
  br i1 %.not52, label %15, label %53

15:                                               ; preds = %13
  %16 = getelementptr inbounds nuw i8, ptr %0, i64 896
  %17 = load i8, ptr %16, align 8
  %18 = and i8 %17, 2
  %.not53 = icmp eq i8 %18, 0
  br i1 %.not53, label %19, label %53

19:                                               ; preds = %15
  %20 = tail call noundef ptr @_ZNK4llvm3opt7ArgList10getLastArgIJN5clang6driver7options2IDEEEEPNS0_3ArgEDpT_(ptr noundef nonnull align 8 dereferenceable(176) %1, i32 noundef 3022)
  %.not54 = icmp eq ptr %20, null
  br i1 %.not54, label %21, label %53

21:                                               ; preds = %19
  %22 = tail call noundef ptr @_ZNK4llvm3opt7ArgList10getLastArgIJN5clang6driver7options2IDEEEEPNS0_3ArgEDpT_(ptr noundef nonnull align 8 dereferenceable(176) %1, i32 noundef 388)
  %.not55 = icmp eq ptr %22, null
  br i1 %.not55, label %23, label %53

23:                                               ; preds = %21
  %24 = tail call noundef ptr @_ZNK4llvm3opt7ArgList10getLastArgIJN5clang6driver7options2IDES6_EEEPNS0_3ArgEDpT_(ptr noundef nonnull align 8 dereferenceable(176) %1, i32 noundef 919, i32 noundef 918)
  %.not56 = icmp eq ptr %24, null
  br i1 %.not56, label %25, label %53

25:                                               ; preds = %23
  %26 = tail call noundef ptr @_ZNK4llvm3opt7ArgList10getLastArgIJN5clang6driver7options2IDEEEEPNS0_3ArgEDpT_(ptr noundef nonnull align 8 dereferenceable(176) %1, i32 noundef 1778)
  %.not57 = icmp eq ptr %26, null
  br i1 %.not57, label %27, label %53

27:                                               ; preds = %25
  %28 = tail call noundef ptr @_ZNK4llvm3opt7ArgList10getLastArgIJN5clang6driver7options2IDEEEEPNS0_3ArgEDpT_(ptr noundef nonnull align 8 dereferenceable(176) %1, i32 noundef 3052)
  %.not58 = icmp eq ptr %28, null
  br i1 %.not58, label %29, label %53

29:                                               ; preds = %27
  %30 = tail call noundef ptr @_ZNK4llvm3opt7ArgList10getLastArgIJN5clang6driver7options2IDEEEEPNS0_3ArgEDpT_(ptr noundef nonnull align 8 dereferenceable(176) %1, i32 noundef 3032)
  %.not59 = icmp eq ptr %30, null
  br i1 %.not59, label %31, label %53

31:                                               ; preds = %29
  %32 = tail call noundef ptr @_ZNK4llvm3opt7ArgList10getLastArgIJN5clang6driver7options2IDEEEEPNS0_3ArgEDpT_(ptr noundef nonnull align 8 dereferenceable(176) %1, i32 noundef 2668)
  %.not60 = icmp eq ptr %32, null
  br i1 %.not60, label %33, label %53

33:                                               ; preds = %31
  %34 = tail call noundef ptr @_ZNK4llvm3opt7ArgList10getLastArgIJN5clang6driver7options2IDEEEEPNS0_3ArgEDpT_(ptr noundef nonnull align 8 dereferenceable(176) %1, i32 noundef 3255)
  %.not61 = icmp eq ptr %34, null
  br i1 %.not61, label %35, label %53

35:                                               ; preds = %33
  %36 = tail call noundef ptr @_ZNK4llvm3opt7ArgList10getLastArgIJN5clang6driver7options2IDEEEEPNS0_3ArgEDpT_(ptr noundef nonnull align 8 dereferenceable(176) %1, i32 noundef 3103)
  %.not62 = icmp eq ptr %36, null
  br i1 %.not62, label %37, label %53

37:                                               ; preds = %35
  %38 = tail call noundef ptr @_ZNK4llvm3opt7ArgList10getLastArgIJN5clang6driver7options2IDEEEEPNS0_3ArgEDpT_(ptr noundef nonnull align 8 dereferenceable(176) %1, i32 noundef 3101)
  %.not63 = icmp eq ptr %38, null
  br i1 %.not63, label %39, label %53

39:                                               ; preds = %37
  %40 = tail call noundef ptr @_ZNK4llvm3opt7ArgList10getLastArgIJN5clang6driver7options2IDEEEEPNS0_3ArgEDpT_(ptr noundef nonnull align 8 dereferenceable(176) %1, i32 noundef 2317)
  %.not64 = icmp eq ptr %40, null
  br i1 %.not64, label %41, label %53

41:                                               ; preds = %39
  %42 = tail call noundef ptr @_ZNK4llvm3opt7ArgList10getLastArgIJN5clang6driver7options2IDEEEEPNS0_3ArgEDpT_(ptr noundef nonnull align 8 dereferenceable(176) %1, i32 noundef 123)
  %.not65 = icmp eq ptr %42, null
  br i1 %.not65, label %43, label %53

43:                                               ; preds = %41
  %44 = tail call noundef ptr @_ZNK4llvm3opt7ArgList10getLastArgIJN5clang6driver7options2IDEEEEPNS0_3ArgEDpT_(ptr noundef nonnull align 8 dereferenceable(176) %1, i32 noundef 335)
  %.not66 = icmp eq ptr %44, null
  br i1 %.not66, label %45, label %53

45:                                               ; preds = %43
  %46 = tail call noundef ptr @_ZNK4llvm3opt7ArgList10getLastArgIJN5clang6driver7options2IDEEEEPNS0_3ArgEDpT_(ptr noundef nonnull align 8 dereferenceable(176) %1, i32 noundef 334)
  %.not67 = icmp eq ptr %46, null
  br i1 %.not67, label %47, label %53

47:                                               ; preds = %45
  %48 = tail call noundef ptr @_ZNK4llvm3opt7ArgList10getLastArgIJN5clang6driver7options2IDEEEEPNS0_3ArgEDpT_(ptr noundef nonnull align 8 dereferenceable(176) %1, i32 noundef 3195)
  %.not68 = icmp eq ptr %48, null
  br i1 %.not68, label %49, label %53

49:                                               ; preds = %47
  %50 = tail call noundef ptr @_ZNK4llvm3opt7ArgList10getLastArgIJN5clang6driver7options2IDEEEEPNS0_3ArgEDpT_(ptr noundef nonnull align 8 dereferenceable(176) %1, i32 noundef 254)
  %.not69 = icmp eq ptr %50, null
  br i1 %.not69, label %51, label %53

51:                                               ; preds = %49
  %52 = tail call noundef ptr @_ZNK4llvm3opt7ArgList10getLastArgIJN5clang6driver7options2IDEEEEPNS0_3ArgEDpT_(ptr noundef nonnull align 8 dereferenceable(176) %1, i32 noundef 342)
  %.not70 = icmp eq ptr %52, null
  %.72 = select i1 %.not70, i32 5, i32 6
  br label %53

53:                                               ; preds = %51, %49, %47, %25, %27, %29, %31, %33, %35, %37, %39, %41, %43, %45, %19, %21, %23, %3, %7, %9, %11, %13, %15
  %.1 = phi ptr [ null, %3 ], [ %8, %7 ], [ %10, %9 ], [ %12, %11 ], [ %14, %13 ], [ null, %15 ], [ %20, %19 ], [ %22, %21 ], [ %24, %23 ], [ %26, %25 ], [ %28, %27 ], [ %30, %29 ], [ %32, %31 ], [ %34, %33 ], [ %36, %35 ], [ %38, %37 ], [ %40, %39 ], [ %42, %41 ], [ %44, %43 ], [ %46, %45 ], [ %48, %47 ], [ %50, %49 ], [ %52, %51 ]
  %.0 = phi i32 [ 0, %3 ], [ 0, %7 ], [ 0, %9 ], [ 0, %11 ], [ 0, %13 ], [ 0, %15 ], [ 1, %19 ], [ 1, %21 ], [ 1, %23 ], [ 2, %25 ], [ 2, %27 ], [ 2, %29 ], [ 2, %31 ], [ 2, %33 ], [ 2, %35 ], [ 2, %37 ], [ 2, %39 ], [ 2, %41 ], [ 2, %43 ], [ 2, %45 ], [ 3, %47 ], [ 4, %49 ], [ %.72, %51 ]
  %.not71 = icmp eq ptr %2, null
  br i1 %.not71, label %55, label %54

54:                                               ; preds = %53
  store ptr %.1, ptr %2, align 8
  br label %55

55:                                               ; preds = %54, %53
  ret i32 %.0
}